; ModuleID = '2/1290.c'
source_filename = "2/1290.c"
target datalayout = "e-m:e-p270:32:32-p271:32:32-p272:64:64-i64:64-f80:128-n8:16:32:64-S128"
target triple = "x86_64-pc-linux-gnu"

%struct.point = type { i32, [80 x i8] }

@__const.main.g = private unnamed_addr constant [27 x i8] c"ABCDEFGHIJKLMNOPQRSTUVWXYZ\00", align 16
@.str = private unnamed_addr constant [3 x i8] c"%d\00", align 1
@.str.1 = private unnamed_addr constant [6 x i8] c"%d %s\00", align 1
@.str.2 = private unnamed_addr constant [7 x i8] c"%c\0A%d\0A\00", align 1
@.str.3 = private unnamed_addr constant [4 x i8] c"%d\0A\00", align 1

; Function Attrs: noinline nounwind uwtable
define dso_local i32 @main() #0 {
  %1 = alloca i32, align 4
  %2 = alloca i32, align 4
  %3 = alloca i32, align 4
  %4 = alloca i32, align 4
  %5 = alloca i32, align 4
  %6 = alloca i32, align 4
  %7 = alloca i32, align 4
  %8 = alloca [25 x i32], align 16
  %9 = alloca [27 x i8], align 16
  %10 = alloca [1000 x %struct.point], align 16
  store i32 0, i32* %1, align 4
  store i32 0, i32* %6, align 4
  store i32 0, i32* %7, align 4
  %11 = bitcast [27 x i8]* %9 to i8*
  call void @llvm.memcpy.p0i8.p0i8.i64(i8* align 16 %11, i8* align 16 getelementptr inbounds ([27 x i8], [27 x i8]* @__const.main.g, i32 0, i32 0), i64 27, i1 false)
  %12 = call i32 (i8*, ...) @__isoc99_scanf(i8* getelementptr inbounds ([3 x i8], [3 x i8]* @.str, i64 0, i64 0), i32* %2)
  store i32 0, i32* %3, align 4
  br label %13

13:                                               ; preds = %28, %0
  %14 = load i32, i32* %3, align 4
  %15 = load i32, i32* %2, align 4
  %16 = icmp slt i32 %14, %15
  br i1 %16, label %17, label %31

17:                                               ; preds = %13
  %18 = load i32, i32* %3, align 4
  %19 = sext i32 %18 to i64
  %20 = getelementptr inbounds [1000 x %struct.point], [1000 x %struct.point]* %10, i64 0, i64 %19
  %21 = getelementptr inbounds %struct.point, %struct.point* %20, i32 0, i32 0
  %22 = load i32, i32* %3, align 4
  %23 = sext i32 %22 to i64
  %24 = getelementptr inbounds [1000 x %struct.point], [1000 x %struct.point]* %10, i64 0, i64 %23
  %25 = getelementptr inbounds %struct.point, %struct.point* %24, i32 0, i32 1
  %26 = getelementptr inbounds [80 x i8], [80 x i8]* %25, i64 0, i64 0
  %27 = call i32 (i8*, ...) @__isoc99_scanf(i8* getelementptr inbounds ([6 x i8], [6 x i8]* @.str.1, i64 0, i64 0), i32* %21, i8* %26)
  br label %28

28:                                               ; preds = %17
  %29 = load i32, i32* %3, align 4
  %30 = add nsw i32 %29, 1
  store i32 %30, i32* %3, align 4
  br label %13

31:                                               ; preds = %13
  store i32 0, i32* %5, align 4
  br label %32

32:                                               ; preds = %86, %31
  %33 = load i32, i32* %5, align 4
  %34 = icmp slt i32 %33, 26
  br i1 %34, label %35, label %89

35:                                               ; preds = %32
  %36 = load i32, i32* %5, align 4
  %37 = sext i32 %36 to i64
  %38 = getelementptr inbounds [25 x i32], [25 x i32]* %8, i64 0, i64 %37
  store i32 0, i32* %38, align 4
  store i32 0, i32* %3, align 4
  br label %39

39:                                               ; preds = %82, %35
  %40 = load i32, i32* %3, align 4
  %41 = load i32, i32* %2, align 4
  %42 = icmp slt i32 %40, %41
  br i1 %42, label %43, label %85

43:                                               ; preds = %39
  store i32 0, i32* %4, align 4
  br label %44

44:                                               ; preds = %78, %43
  %45 = load i32, i32* %3, align 4
  %46 = sext i32 %45 to i64
  %47 = getelementptr inbounds [1000 x %struct.point], [1000 x %struct.point]* %10, i64 0, i64 %46
  %48 = getelementptr inbounds %struct.point, %struct.point* %47, i32 0, i32 1
  %49 = load i32, i32* %4, align 4
  %50 = sext i32 %49 to i64
  %51 = getelementptr inbounds [80 x i8], [80 x i8]* %48, i64 0, i64 %50
  %52 = load i8, i8* %51, align 1
  %53 = sext i8 %52 to i32
  %54 = icmp ne i32 %53, 0
  br i1 %54, label %55, label %81

55:                                               ; preds = %44
  %56 = load i32, i32* %3, align 4
  %57 = sext i32 %56 to i64
  %58 = getelementptr inbounds [1000 x %struct.point], [1000 x %struct.point]* %10, i64 0, i64 %57
  %59 = getelementptr inbounds %struct.point, %struct.point* %58, i32 0, i32 1
  %60 = load i32, i32* %4, align 4
  %61 = sext i32 %60 to i64
  %62 = getelementptr inbounds [80 x i8], [80 x i8]* %59, i64 0, i64 %61
  %63 = load i8, i8* %62, align 1
  %64 = sext i8 %63 to i32
  %65 = load i32, i32* %5, align 4
  %66 = sext i32 %65 to i64
  %67 = getelementptr inbounds [27 x i8], [27 x i8]* %9, i64 0, i64 %66
  %68 = load i8, i8* %67, align 1
  %69 = sext i8 %68 to i32
  %70 = icmp eq i32 %64, %69
  br i1 %70, label %71, label %77

71:                                               ; preds = %55
  %72 = load i32, i32* %5, align 4
  %73 = sext i32 %72 to i64
  %74 = getelementptr inbounds [25 x i32], [25 x i32]* %8, i64 0, i64 %73
  %75 = load i32, i32* %74, align 4
  %76 = add nsw i32 %75, 1
  store i32 %76, i32* %74, align 4
  br label %77

77:                                               ; preds = %71, %55
  br label %78

78:                                               ; preds = %77
  %79 = load i32, i32* %4, align 4
  %80 = add nsw i32 %79, 1
  store i32 %80, i32* %4, align 4
  br label %44

81:                                               ; preds = %44
  br label %82

82:                                               ; preds = %81
  %83 = load i32, i32* %3, align 4
  %84 = add nsw i32 %83, 1
  store i32 %84, i32* %3, align 4
  br label %39

85:                                               ; preds = %39
  br label %86

86:                                               ; preds = %85
  %87 = load i32, i32* %5, align 4
  %88 = add nsw i32 %87, 1
  store i32 %88, i32* %5, align 4
  br label %32

89:                                               ; preds = %32
  store i32 0, i32* %3, align 4
  br label %90

90:                                               ; preds = %107, %89
  %91 = load i32, i32* %3, align 4
  %92 = icmp slt i32 %91, 26
  br i1 %92, label %93, label %110

93:                                               ; preds = %90
  %94 = load i32, i32* %3, align 4
  %95 = sext i32 %94 to i64
  %96 = getelementptr inbounds [25 x i32], [25 x i32]* %8, i64 0, i64 %95
  %97 = load i32, i32* %96, align 4
  %98 = load i32, i32* %6, align 4
  %99 = icmp sgt i32 %97, %98
  br i1 %99, label %100, label %106

100:                                              ; preds = %93
  %101 = load i32, i32* %3, align 4
  %102 = sext i32 %101 to i64
  %103 = getelementptr inbounds [25 x i32], [25 x i32]* %8, i64 0, i64 %102
  %104 = load i32, i32* %103, align 4
  store i32 %104, i32* %6, align 4
  %105 = load i32, i32* %3, align 4
  store i32 %105, i32* %7, align 4
  br label %106

106:                                              ; preds = %100, %93
  br label %107

107:                                              ; preds = %106
  %108 = load i32, i32* %3, align 4
  %109 = add nsw i32 %108, 1
  store i32 %109, i32* %3, align 4
  br label %90

110:                                              ; preds = %90
  %111 = load i32, i32* %7, align 4
  %112 = sext i32 %111 to i64
  %113 = getelementptr inbounds [27 x i8], [27 x i8]* %9, i64 0, i64 %112
  %114 = load i8, i8* %113, align 1
  %115 = sext i8 %114 to i32
  %116 = load i32, i32* %6, align 4
  %117 = call i32 (i8*, ...) @printf(i8* getelementptr inbounds ([7 x i8], [7 x i8]* @.str.2, i64 0, i64 0), i32 %115, i32 %116)
  store i32 0, i32* %3, align 4
  br label %118

118:                                              ; preds = %162, %110
  %119 = load i32, i32* %3, align 4
  %120 = load i32, i32* %2, align 4
  %121 = icmp slt i32 %119, %120
  br i1 %121, label %122, label %165

122:                                              ; preds = %118
  store i32 0, i32* %4, align 4
  br label %123

123:                                              ; preds = %158, %122
  %124 = load i32, i32* %3, align 4
  %125 = sext i32 %124 to i64
  %126 = getelementptr inbounds [1000 x %struct.point], [1000 x %struct.point]* %10, i64 0, i64 %125
  %127 = getelementptr inbounds %struct.point, %struct.point* %126, i32 0, i32 1
  %128 = load i32, i32* %4, align 4
  %129 = sext i32 %128 to i64
  %130 = getelementptr inbounds [80 x i8], [80 x i8]* %127, i64 0, i64 %129
  %131 = load i8, i8* %130, align 1
  %132 = sext i8 %131 to i32
  %133 = icmp ne i32 %132, 0
  br i1 %133, label %134, label %161

134:                                              ; preds = %123
  %135 = load i32, i32* %3, align 4
  %136 = sext i32 %135 to i64
  %137 = getelementptr inbounds [1000 x %struct.point], [1000 x %struct.point]* %10, i64 0, i64 %136
  %138 = getelementptr inbounds %struct.point, %struct.point* %137, i32 0, i32 1
  %139 = load i32, i32* %4, align 4
  %140 = sext i32 %139 to i64
  %141 = getelementptr inbounds [80 x i8], [80 x i8]* %138, i64 0, i64 %140
  %142 = load i8, i8* %141, align 1
  %143 = sext i8 %142 to i32
  %144 = load i32, i32* %7, align 4
  %145 = sext i32 %144 to i64
  %146 = getelementptr inbounds [27 x i8], [27 x i8]* %9, i64 0, i64 %145
  %147 = load i8, i8* %146, align 1
  %148 = sext i8 %147 to i32
  %149 = icmp eq i32 %143, %148
  br i1 %149, label %150, label %157

150:                                              ; preds = %134
  %151 = load i32, i32* %3, align 4
  %152 = sext i32 %151 to i64
  %153 = getelementptr inbounds [1000 x %struct.point], [1000 x %struct.point]* %10, i64 0, i64 %152
  %154 = getelementptr inbounds %struct.point, %struct.point* %153, i32 0, i32 0
  %155 = load i32, i32* %154, align 4
  %156 = call i32 (i8*, ...) @printf(i8* getelementptr inbounds ([4 x i8], [4 x i8]* @.str.3, i64 0, i64 0), i32 %155)
  br label %157

157:                                              ; preds = %150, %134
  br label %158

158:                                              ; preds = %157
  %159 = load i32, i32* %4, align 4
  %160 = add nsw i32 %159, 1
  store i32 %160, i32* %4, align 4
  br label %123

161:                                              ; preds = %123
  br label %162

162:                                              ; preds = %161
  %163 = load i32, i32* %3, align 4
  %164 = add nsw i32 %163, 1
  store i32 %164, i32* %3, align 4
  br label %118

165:                                              ; preds = %118
  ret i32 0
}

; Function Attrs: argmemonly nounwind willreturn
declare void @llvm.memcpy.p0i8.p0i8.i64(i8* noalias nocapture writeonly, i8* noalias nocapture readonly, i64, i1 immarg) #1

declare dso_local i32 @__isoc99_scanf(i8*, ...) #2

declare dso_local i32 @printf(i8*, ...) #2


!llvm.module.flags = !{!0}
!llvm.ident = !{!1}

!0 = !{i32 1, !"wchar_size", i32 4}
!1 = !{!"clang version 10.0.0-4ubuntu1 "}
